(dp1
S'output'
p2
S''
sS'layer'
p3
S'Framework'
p4
sS'code'
p5
S''
sS'snapshot'
p6
(dp7
S'exception'
p8
(dp9
S'__hash__'
p10
S"<method-wrapper '__hash__' of exceptions.KeyboardInterrupt object>"
p11
sS'__setattr__'
p12
S"<method-wrapper '__setattr__' of exceptions.KeyboardInterrupt object>"
p13
sS'__reduce_ex__'
p14
S'<built-in method __reduce_ex__ of exceptions.KeyboardInterrupt object>'
p15
sS'__getslice__'
p16
S"<method-wrapper '__getslice__' of exceptions.KeyboardInterrupt object>"
p17
sS'__getitem__'
p18
S"<method-wrapper '__getitem__' of exceptions.KeyboardInterrupt object>"
p19
sS'__setstate__'
p20
S'<built-in method __setstate__ of exceptions.KeyboardInterrupt object>'
p21
sS'__reduce__'
p22
S'<built-in method __reduce__ of exceptions.KeyboardInterrupt object>'
p23
sS'__str__'
p24
S"<method-wrapper '__str__' of exceptions.KeyboardInterrupt object>"
p25
sS'__format__'
p26
S'<built-in method __format__ of exceptions.KeyboardInterrupt object>'
p27
sS'__getattribute__'
p28
S"<method-wrapper '__getattribute__' of exceptions.KeyboardInterrupt object>"
p29
sS'__class__'
p30
S"<type 'exceptions.KeyboardInterrupt'>"
p31
sS'__unicode__'
p32
S'<built-in method __unicode__ of exceptions.KeyboardInterrupt object>'
p33
sS'__delattr__'
p34
S"<method-wrapper '__delattr__' of exceptions.KeyboardInterrupt object>"
p35
sS'__subclasshook__'
p36
S'<built-in method __subclasshook__ of type object>'
p37
sS'__repr__'
p38
S"<method-wrapper '__repr__' of exceptions.KeyboardInterrupt object>"
p39
sS'args'
p40
S'()'
p41
sS'__dict__'
p42
S'{}'
p43
sS'__sizeof__'
p44
S'<built-in method __sizeof__ of exceptions.KeyboardInterrupt object>'
p45
sS'__doc__'
p46
S"'Program interrupted by user.'"
p47
sS'__init__'
p48
S"<method-wrapper '__init__' of exceptions.KeyboardInterrupt object>"
p49
sS'__new__'
p50
S'<built-in method __new__ of type object>'
p51
ssS'evalue'
p52
S''
sS'request'
p53
cgluon.html
XML_unpickle
p54
(S'sgd\x00\x00<div><table><tr><td style="font-weight:bold;vertical-align:top;">ajax</td><td style="vertical-align:top;">:</td><td><div>True</div></td></tr><tr><td style="font-weight:bold;vertical-align:top;">application</td><td style="vertical-align:top;">:</td><td><div>test</div></td></tr><tr><td style="font-weight:bold;vertical-align:top;">args</td><td style="vertical-align:top;">:</td><td><div><table></table></div></td></tr><tr><td style="font-weight:bold;vertical-align:top;">cid</td><td style="vertical-align:top;">:</td><td><div>None</div></td></tr><tr><td style="font-weight:bold;vertical-align:top;">client</td><td style="vertical-align:top;">:</td><td><div>169.254.55.203</div></td></tr><tr><td style="font-weight:bold;vertical-align:top;">controller</td><td style="vertical-align:top;">:</td><td><div>default</div></td></tr><tr><td style="font-weight:bold;vertical-align:top;">cookies</td><td style="vertical-align:top;">:</td><td><div><table><tr><td style="font-weight:bold;vertical-align:top;">session_id_admin</td><td style="vertical-align:top;">:</td><td><div>169.254.55.203-1b67b0be-e0c8-40bf-a3e5-de4ad29da5fe<table><tr><td style="font-weight:bold;vertical-align:top;">comment</td><td style="vertical-align:top;">:</td><td><div></div></td></tr><tr><td style="font-weight:bold;vertical-align:top;">domain</td><td style="vertical-align:top;">:</td><td><div></div></td></tr><tr><td style="font-weight:bold;vertical-align:top;">expires</td><td style="vertical-align:top;">:</td><td><div></div></td></tr><tr><td style="font-weight:bold;vertical-align:top;">httponly</td><td style="vertical-align:top;">:</td><td><div></div></td></tr><tr><td style="font-weight:bold;vertical-align:top;">max-age</td><td style="vertical-align:top;">:</td><td><div></div></td></tr><tr><td style="font-weight:bold;vertical-align:top;">path</td><td style="vertical-align:top;">:</td><td><div></div></td></tr><tr><td style="font-weight:bold;vertical-align:top;">secure</td><td style="vertical-align:top;">:</td><td><div></div></td></tr><tr><td style="font-weight:bold;vertical-align:top;">version</td><td style="vertical-align:top;">:</td><td><div></div></td></tr></table></div></td></tr><tr><td style="font-weight:bold;vertical-align:top;">session_id_test</td><td style="vertical-align:top;">:</td><td><div>169.254.55.203-c03f8034-2cad-4187-9815-8762e42d0bc5<table><tr><td style="font-weight:bold;vertical-align:top;">comment</td><td style="vertical-align:top;">:</td><td><div></div></td></tr><tr><td style="font-weight:bold;vertical-align:top;">domain</td><td style="vertical-align:top;">:</td><td><div></div></td></tr><tr><td style="font-weight:bold;vertical-align:top;">expires</td><td style="vertical-align:top;">:</td><td><div></div></td></tr><tr><td style="font-weight:bold;vertical-align:top;">httponly</td><td style="vertical-align:top;">:</td><td><div></div></td></tr><tr><td style="font-weight:bold;vertical-align:top;">max-age</td><td style="vertical-align:top;">:</td><td><div></div></td></tr><tr><td style="font-weight:bold;vertical-align:top;">path</td><td style="vertical-align:top;">:</td><td><div></div></td></tr><tr><td style="font-weight:bold;vertical-align:top;">secure</td><td style="vertical-align:top;">:</td><td><div></div></td></tr><tr><td style="font-weight:bold;vertical-align:top;">version</td><td style="vertical-align:top;">:</td><td><div></div></td></tr></table></div></td></tr><tr><td style="font-weight:bold;vertical-align:top;">session_id_welcome</td><td style="vertical-align:top;">:</td><td><div>169.254.55.203-8b672317-e552-4563-bd57-3b6a1242f9b1<table><tr><td style="font-weight:bold;vertical-align:top;">comment</td><td style="vertical-align:top;">:</td><td><div></div></td></tr><tr><td style="font-weight:bold;vertical-align:top;">domain</td><td style="vertical-align:top;">:</td><td><div></div></td></tr><tr><td style="font-weight:bold;vertical-align:top;">expires</td><td style="vertical-align:top;">:</td><td><div></div></td></tr><tr><td style="font-weight:bold;vertical-align:top;">httponly</td><td style="vertical-align:top;">:</td><td><div></div></td></tr><tr><td style="font-weight:bold;vertical-align:top;">max-age</td><td style="vertical-align:top;">:</td><td><div></div></td></tr><tr><td style="font-weight:bold;vertical-align:top;">path</td><td style="vertical-align:top;">:</td><td><div></div></td></tr><tr><td style="font-weight:bold;vertical-align:top;">secure</td><td style="vertical-align:top;">:</td><td><div></div></td></tr><tr><td style="font-weight:bold;vertical-align:top;">version</td><td style="vertical-align:top;">:</td><td><div></div></td></tr></table></div></td></tr></table></div></td></tr><tr><td style="font-weight:bold;vertical-align:top;">env</td><td style="vertical-align:top;">:</td><td><div><table><tr><td style="font-weight:bold;vertical-align:top;">CONTENT_LENGTH</td><td style="vertical-align:top;">:</td><td><div>9</div></td></tr><tr><td style="font-weight:bold;vertical-align:top;">CONTENT_TYPE</td><td style="vertical-align:top;">:</td><td><div>application/x-www-form-urlencoded; charset=UTF-8</div></td></tr><tr><td style="font-weight:bold;vertical-align:top;">HTTPS</td><td style="vertical-align:top;">:</td><td><div>on</div></td></tr><tr><td style="font-weight:bold;vertical-align:top;">HTTP_ACCEPT</td><td style="vertical-align:top;">:</td><td><div>*/*</div></td></tr><tr><td style="font-weight:bold;vertical-align:top;">HTTP_ACCEPT_ENCODING</td><td style="vertical-align:top;">:</td><td><div>gzip, deflate</div></td></tr><tr><td style="font-weight:bold;vertical-align:top;">HTTP_ACCEPT_LANGUAGE</td><td style="vertical-align:top;">:</td><td><div>ko-KR,ko;q=0.8,en-US;q=0.6,en;q=0.4</div></td></tr><tr><td style="font-weight:bold;vertical-align:top;">HTTP_CONNECTION</td><td style="vertical-align:top;">:</td><td><div>keep-alive</div></td></tr><tr><td style="font-weight:bold;vertical-align:top;">HTTP_CONTENT_LENGTH</td><td style="vertical-align:top;">:</td><td><div>9</div></td></tr><tr><td style="font-weight:bold;vertical-align:top;">HTTP_CONTENT_TYPE</td><td style="vertical-align:top;">:</td><td><div>application/x-www-form-urlencoded; charset=UTF-8</div></td></tr><tr><td style="font-weight:bold;vertical-align:top;">HTTP_COOKIE</td><td style="vertical-align:top;">:</td><td><div>session_id_welcome=169.254.55.203-8b672317-e552-4563-bd57-3b6a1242f9b1; session_id_admin=169.254.55.203-1b67b0be-e0c8-40bf-a3e5-de4ad29da5fe; session_id_test=169.254.55.203-c03f8034-2cad-4187-9815-8762e42d0bc5</div></td></tr><tr><td style="font-weight:bold;vertical-align:top;">HTTP_HOST</td><td style="vertical-align:top;">:</td><td><div>169.254.1.231:8000</div></td></tr><tr><td style="font-weight:bold;vertical-align:top;">HTTP_ORIGIN</td><td style="vertical-align:top;">:</td><td><div>https://169.254.1.231:8000</div></td></tr><tr><td style="font-weight:bold;vertical-align:top;">HTTP_REFERER</td><td style="vertical-align:top;">:</td><td><div>https://169.254.1.231:8000/test/default/chatting.html</div></td></tr><tr><td style="font-weight:bold;vertical-align:top;">HTTP_USER_AGENT</td><td style="vertical-align:top;">:</td><td><div>Mozilla/5.0 (Windows NT 6.3; WOW64) AppleWebKit/537.36 (KHTML, like Gecko) Chrome/44.0.2403.130 Safari/537.36</div></td></tr><tr><td style="font-weight:bold;vertical-align:top;">HTTP_X_REQUESTED_WITH</td><td style="vertical-align:top;">:</td><td><div>XMLHttpRequest</div></td></tr><tr><td style="font-weight:bold;vertical-align:top;">PATH_INFO</td><td style="vertical-align:top;">:</td><td><div>/test/default/message_updates.json</div></td></tr><tr><td style="font-weight:bold;vertical-align:top;">QUERY_STRING</td><td style="vertical-align:top;">:</td><td><div>_signature=3551966365eeb53ad78b532680c84c2080a43074</div></td></tr><tr><td style="font-weight:bold;vertical-align:top;">REMOTE_ADDR</td><td style="vertical-align:top;">:</td><td><div>169.254.55.203</div></td></tr><tr><td style="font-weight:bold;vertical-align:top;">REMOTE_PORT</td><td style="vertical-align:top;">:</td><td><div>7810</div></td></tr><tr><td style="font-weight:bold;vertical-align:top;">REQUEST_METHOD</td><td style="vertical-align:top;">:</td><td><div>POST</div></td></tr><tr><td style="font-weight:bold;vertical-align:top;">SCRIPT_NAME</td><td style="vertical-align:top;">:</td><td><div></div></td></tr><tr><td style="font-weight:bold;vertical-align:top;">SERVER_NAME</td><td style="vertical-align:top;">:</td><td><div>hyunhwa</div></td></tr><tr><td style="font-weight:bold;vertical-align:top;">SERVER_PORT</td><td style="vertical-align:top;">:</td><td><div>8000</div></td></tr><tr><td style="font-weight:bold;vertical-align:top;">SERVER_PROTOCOL</td><td style="vertical-align:top;">:</td><td><div>HTTP/1.1</div></td></tr><tr><td style="font-weight:bold;vertical-align:top;">SERVER_SOFTWARE</td><td style="vertical-align:top;">:</td><td><div>Rocket 1.2.6</div></td></tr><tr><td style="font-weight:bold;vertical-align:top;">SSL_CLIENT_RAW_CERT</td><td style="vertical-align:top;">:</td><td><div>None</div></td></tr><tr><td style="font-weight:bold;vertical-align:top;">app_folders</td><td style="vertical-align:top;">:</td><td><div>set([&#x27;/home/pi/hyunhwa/web2py/applications/test/&#x27;, &#x27;/home/pi/hyunhwa/web2py/applications/admin/&#x27;])</div></td></tr><tr><td style="font-weight:bold;vertical-align:top;">applications_parent</td><td style="vertical-align:top;">:</td><td><div>/home/pi/hyunhwa/web2py</div></td></tr><tr><td style="font-weight:bold;vertical-align:top;">cmd_args</td><td style="vertical-align:top;">:</td><td><div><table></table></div></td></tr><tr><td style="font-weight:bold;vertical-align:top;">cmd_options</td><td style="vertical-align:top;">:</td><td><div>&lt;Values at 0x19963c8: {&#x27;verbose&#x27;: False, &#x27;ip&#x27;: &#x27;169.254.1.231&#x27;, &#x27;debuglevel&#x27;: 30, &#x27;with_scheduler&#x27;: False, &#x27;ips&#x27;: [&#x27;127.0.1.1&#x27;], &#x27;shutdown_timeout&#x27;: 5, &#x27;taskbar&#x27;: False, &#x27;with_coverage&#x27;: False, &#x27;scheduler_groups&#x27;: None, &#x27;port&#x27;: 8000, &#x27;maxthreads&#x27;: None, &#x27;softcron&#x27;: False, &#x27;server_name&#x27;: &#x27;hyunhwa&#x27;, &#x27;bpython&#x27;: False, &#x27;nogui&#x27;: False, &#x27;pid_filename&#x27;: &#x27;httpserver.pid&#x27;, &#x27;print_errors&#x27;: False, &#x27;extcron&#x27;: False, &#x27;runcron&#x27;: False, &#x27;run_system_tests&#x27;: False, &#x27;test&#x27;: None, &#x27;folder&#x27;: &#x27;/home/pi/hyunhwa/web2py&#x27;, &#x27;config&#x27;: &#x27;&#x27;, &#x27;minthreads&#x27;: None, &#x27;shell&#x27;: None, &#x27;run&#x27;: &#x27;&#x27;, &#x27;log_filename&#x27;: &#x27;httpserver.log&#x27;, &#x27;profiler_dir&#x27;: None, &#x27;args&#x27;: [&#x27;&#x27;], &#x27;socket_timeout&#x27;: 5, &#x27;ssl_ca_certificate&#x27;: None, &#x27;scheduler&#x27;: None, &#x27;interfaces&#x27;: None, &#x27;ssl_private_key&#x27;: &#x27;server.key&#x27;, &#x27;gae&#x27;: None, &#x27;password&#x27;: &#x27;tinyos&#x27;, &#x27;request_queue_size&#x27;: 5, &#x27;ssl_certificate&#x27;: &#x27;server.crt&#x27;, &#x27;cronjob&#x27;: False, &#x27;numthreads&#x27;: None, &#x27;quiet&#x27;: False, &#x27;import_models&#x27;: False, &#x27;timeout&#x27;: 10, &#x27;plain&#x27;: False, &#x27;nobanner&#x27;: False}&gt;</div></td></tr><tr><td style="font-weight:bold;vertical-align:top;">content_length</td><td style="vertical-align:top;">:</td><td><div>9</div></td></tr><tr><td style="font-weight:bold;vertical-align:top;">content_type</td><td style="vertical-align:top;">:</td><td><div>application/x-www-form-urlencoded; charset=UTF-8</div></td></tr><tr><td style="font-weight:bold;vertical-align:top;">db_sessions</td><td style="vertical-align:top;">:</td><td><div>set([])</div></td></tr><tr><td style="font-weight:bold;vertical-align:top;">debugging</td><td style="vertical-align:top;">:</td><td><div>False</div></td></tr><tr><td style="font-weight:bold;vertical-align:top;">gluon_parent</td><td style="vertical-align:top;">:</td><td><div>/home/pi/hyunhwa/web2py</div></td></tr><tr><td style="font-weight:bold;vertical-align:top;">http_accept</td><td style="vertical-align:top;">:</td><td><div>*/*</div></td></tr><tr><td style="font-weight:bold;vertical-align:top;">http_accept_encoding</td><td style="vertical-align:top;">:</td><td><div>gzip, deflate</div></td></tr><tr><td style="font-weight:bold;vertical-align:top;">http_accept_language</td><td style="vertical-align:top;">:</td><td><div>ko-KR,ko;q=0.8,en-US;q=0.6,en;q=0.4</div></td></tr><tr><td style="font-weight:bold;vertical-align:top;">http_connection</td><td style="vertical-align:top;">:</td><td><div>keep-alive</div></td></tr><tr><td style="font-weight:bold;vertical-align:top;">http_content_length</td><td style="vertical-align:top;">:</td><td><div>9</div></td></tr><tr><td style="font-weight:bold;vertical-align:top;">http_content_type</td><td style="vertical-align:top;">:</td><td><div>application/x-www-form-urlencoded; charset=UTF-8</div></td></tr><tr><td style="font-weight:bold;vertical-align:top;">http_cookie</td><td style="vertical-align:top;">:</td><td><div>session_id_welcome=169.254.55.203-8b672317-e552-4563-bd57-3b6a1242f9b1; session_id_admin=169.254.55.203-1b67b0be-e0c8-40bf-a3e5-de4ad29da5fe; session_id_test=169.254.55.203-c03f8034-2cad-4187-9815-8762e42d0bc5</div></td></tr><tr><td style="font-weight:bold;vertical-align:top;">http_host</td><td style="vertical-align:top;">:</td><td><div>169.254.1.231:8000</div></td></tr><tr><td style="font-weight:bold;vertical-align:top;">http_origin</td><td style="vertical-align:top;">:</td><td><div>https://169.254.1.231:8000</div></td></tr><tr><td style="font-weight:bold;vertical-align:top;">http_referer</td><td style="vertical-align:top;">:</td><td><div>https://169.254.1.231:8000/test/default/chatting.html</div></td></tr><tr><td style="font-weight:bold;vertical-align:top;">http_user_agent</td><td style="vertical-align:top;">:</td><td><div>Mozilla/5.0 (Windows NT 6.3; WOW64) AppleWebKit/537.36 (KHTML, like Gecko) Chrome/44.0.2403.130 Safari/537.36</div></td></tr><tr><td style="font-weight:bold;vertical-align:top;">http_x_requested_with</td><td style="vertical-align:top;">:</td><td><div>XMLHttpRequest</div></td></tr><tr><td style="font-weight:bold;vertical-align:top;">https</td><td style="vertical-align:top;">:</td><td><div>on</div></td></tr><tr><td style="font-weight:bold;vertical-align:top;">is_jython</td><td style="vertical-align:top;">:</td><td><div>False</div></td></tr><tr><td style="font-weight:bold;vertical-align:top;">is_pypy</td><td style="vertical-align:top;">:</td><td><div>False</div></td></tr><tr><td style="font-weight:bold;vertical-align:top;">is_source</td><td style="vertical-align:top;">:</td><td><div>True</div></td></tr><tr><td style="font-weight:bold;vertical-align:top;">local_hosts</td><td style="vertical-align:top;">:</td><td><div><table><tr><td><div>::1</div></td></tr><tr><td><div>127.0.1.1</div></td></tr><tr><td><div>::ffff:127.0.0.1</div></td></tr><tr><td><div>127.0.0.1</div></td></tr><tr><td><div>hyunhwa</div></td></tr></table></div></td></tr><tr><td style="font-weight:bold;vertical-align:top;">path_info</td><td style="vertical-align:top;">:</td><td><div>/test/default/message_updates.json</div></td></tr><tr><td style="font-weight:bold;vertical-align:top;">query_string</td><td style="vertical-align:top;">:</td><td><div>_signature=3551966365eeb53ad78b532680c84c2080a43074</div></td></tr><tr><td style="font-weight:bold;vertical-align:top;">remote_addr</td><td style="vertical-align:top;">:</td><td><div>169.254.55.203</div></td></tr><tr><td style="font-weight:bold;vertical-align:top;">remote_port</td><td style="vertical-align:top;">:</td><td><div>7810</div></td></tr><tr><td style="font-weight:bold;vertical-align:top;">request_method</td><td style="vertical-align:top;">:</td><td><div>POST</div></td></tr><tr><td style="font-weight:bold;vertical-align:top;">request_uri</td><td style="vertical-align:top;">:</td><td><div>/test/default/message_updates.json?_signature=3551966365eeb53ad78b532680c84c2080a43074</div></td></tr><tr><td style="font-weight:bold;vertical-align:top;">script_name</td><td style="vertical-align:top;">:</td><td><div></div></td></tr><tr><td style="font-weight:bold;vertical-align:top;">server_name</td><td style="vertical-align:top;">:</td><td><div>hyunhwa</div></td></tr><tr><td style="font-weight:bold;vertical-align:top;">server_port</td><td style="vertical-align:top;">:</td><td><div>8000</div></td></tr><tr><td style="font-weight:bold;vertical-align:top;">server_protocol</td><td style="vertical-align:top;">:</td><td><div>HTTP/1.1</div></td></tr><tr><td style="font-weight:bold;vertical-align:top;">server_software</td><td style="vertical-align:top;">:</td><td><div>Rocket 1.2.6</div></td></tr><tr><td style="font-weight:bold;vertical-align:top;">ssl_client_raw_cert</td><td style="vertical-align:top;">:</td><td><div>None</div></td></tr><tr><td style="font-weight:bold;vertical-align:top;">web2py_path</td><td style="vertical-align:top;">:</td><td><div>/home/pi/hyunhwa/web2py</div></td></tr><tr><td style="font-weight:bold;vertical-align:top;">web2py_version</td><td style="vertical-align:top;">:</td><td><div>2.12.0-stable+timestamp.2015.07.20.01.19.51</div></td></tr><tr><td style="font-weight:bold;vertical-align:top;">wsgi.errors</td><td style="vertical-align:top;">:</td><td><div>&lt;open file &#x27;&lt;stderr&gt;&#x27;, mode &#x27;w&#x27; at 0xb6d040d0&gt;</div></td></tr><tr><td style="font-weight:bold;vertical-align:top;">wsgi.file_wrapper</td><td style="vertical-align:top;">:</td><td><div>&lt;class wsgiref.util.FileWrapper at 0x194eb90&gt;</div></td></tr><tr><td style="font-weight:bold;vertical-align:top;">wsgi.input</td><td style="vertical-align:top;">:</td><td><div>&lt;socket._fileobject object at 0x19a92b0&gt;</div></td></tr><tr><td style="font-weight:bold;vertical-align:top;">wsgi.multiprocess</td><td style="vertical-align:top;">:</td><td><div>False</div></td></tr><tr><td style="font-weight:bold;vertical-align:top;">wsgi.multithread</td><td style="vertical-align:top;">:</td><td><div>True</div></td></tr><tr><td style="font-weight:bold;vertical-align:top;">wsgi.run_once</td><td style="vertical-align:top;">:</td><td><div>False</div></td></tr><tr><td style="font-weight:bold;vertical-align:top;">wsgi.url_scheme</td><td style="vertical-align:top;">:</td><td><div>https</div></td></tr><tr><td style="font-weight:bold;vertical-align:top;">wsgi.version</td><td style="vertical-align:top;">:</td><td><div><table><tr><td><div>1</div></td></tr><tr><td><div>0</div></td></tr></table></div></td></tr><tr><td style="font-weight:bold;vertical-align:top;">wsgi_errors</td><td style="vertical-align:top;">:</td><td><div>&lt;open file &#x27;&lt;stderr&gt;&#x27;, mode &#x27;w&#x27; at 0xb6d040d0&gt;</div></td></tr><tr><td style="font-weight:bold;vertical-align:top;">wsgi_file_wrapper</td><td style="vertical-align:top;">:</td><td><div>&lt;class wsgiref.util.FileWrapper at 0x194eb90&gt;</div></td></tr><tr><td style="font-weight:bold;vertical-align:top;">wsgi_input</td><td style="vertical-align:top;">:</td><td><div>&lt;socket._fileobject object at 0x19a92b0&gt;</div></td></tr><tr><td style="font-weight:bold;vertical-align:top;">wsgi_multiprocess</td><td style="vertical-align:top;">:</td><td><div>False</div></td></tr><tr><td style="font-weight:bold;vertical-align:top;">wsgi_multithread</td><td style="vertical-align:top;">:</td><td><div>True</div></td></tr><tr><td style="font-weight:bold;vertical-align:top;">wsgi_run_once</td><td style="vertical-align:top;">:</td><td><div>False</div></td></tr><tr><td style="font-weight:bold;vertical-align:top;">wsgi_url_scheme</td><td style="vertical-align:top;">:</td><td><div>https</div></td></tr><tr><td style="font-weight:bold;vertical-align:top;">wsgi_version</td><td style="vertical-align:top;">:</td><td><div><table><tr><td><div>1</div></td></tr><tr><td><div>0</div></td></tr></table></div></td></tr></table></div></td></tr><tr><td style="font-weight:bold;vertical-align:top;">extension</td><td style="vertical-align:top;">:</td><td><div>json</div></td></tr><tr><td style="font-weight:bold;vertical-align:top;">folder</td><td style="vertical-align:top;">:</td><td><div>/home/pi/hyunhwa/web2py/applications/test/</div></td></tr><tr><td style="font-weight:bold;vertical-align:top;">function</td><td style="vertical-align:top;">:</td><td><div>message_updates</div></td></tr><tr><td style="font-weight:bold;vertical-align:top;">global_settings</td><td style="vertical-align:top;">:</td><td><div><table><tr><td style="font-weight:bold;vertical-align:top;">app_folders</td><td style="vertical-align:top;">:</td><td><div>set([&#x27;/home/pi/hyunhwa/web2py/applications/test/&#x27;, &#x27;/home/pi/hyunhwa/web2py/applications/admin/&#x27;])</div></td></tr><tr><td style="font-weight:bold;vertical-align:top;">applications_parent</td><td style="vertical-align:top;">:</td><td><div>/home/pi/hyunhwa/web2py</div></td></tr><tr><td style="font-weight:bold;vertical-align:top;">cmd_args</td><td style="vertical-align:top;">:</td><td><div><table></table></div></td></tr><tr><td style="font-weight:bold;vertical-align:top;">cmd_options</td><td style="vertical-align:top;">:</td><td><div>&lt;Values at 0x19963c8: {&#x27;verbose&#x27;: False, &#x27;ip&#x27;: &#x27;169.254.1.231&#x27;, &#x27;debuglevel&#x27;: 30, &#x27;with_scheduler&#x27;: False, &#x27;ips&#x27;: [&#x27;127.0.1.1&#x27;], &#x27;shutdown_timeout&#x27;: 5, &#x27;taskbar&#x27;: False, &#x27;with_coverage&#x27;: False, &#x27;scheduler_groups&#x27;: None, &#x27;port&#x27;: 8000, &#x27;maxthreads&#x27;: None, &#x27;softcron&#x27;: False, &#x27;server_name&#x27;: &#x27;hyunhwa&#x27;, &#x27;bpython&#x27;: False, &#x27;nogui&#x27;: False, &#x27;pid_filename&#x27;: &#x27;httpserver.pid&#x27;, &#x27;print_errors&#x27;: False, &#x27;extcron&#x27;: False, &#x27;runcron&#x27;: False, &#x27;run_system_tests&#x27;: False, &#x27;test&#x27;: None, &#x27;folder&#x27;: &#x27;/home/pi/hyunhwa/web2py&#x27;, &#x27;config&#x27;: &#x27;&#x27;, &#x27;minthreads&#x27;: None, &#x27;shell&#x27;: None, &#x27;run&#x27;: &#x27;&#x27;, &#x27;log_filename&#x27;: &#x27;httpserver.log&#x27;, &#x27;profiler_dir&#x27;: None, &#x27;args&#x27;: [&#x27;&#x27;], &#x27;socket_timeout&#x27;: 5, &#x27;ssl_ca_certificate&#x27;: None, &#x27;scheduler&#x27;: None, &#x27;interfaces&#x27;: None, &#x27;ssl_private_key&#x27;: &#x27;server.key&#x27;, &#x27;gae&#x27;: None, &#x27;password&#x27;: &#x27;tinyos&#x27;, &#x27;request_queue_size&#x27;: 5, &#x27;ssl_certificate&#x27;: &#x27;server.crt&#x27;, &#x27;cronjob&#x27;: False, &#x27;numthreads&#x27;: None, &#x27;quiet&#x27;: False, &#x27;import_models&#x27;: False, &#x27;timeout&#x27;: 10, &#x27;plain&#x27;: False, &#x27;nobanner&#x27;: False}&gt;</div></td></tr><tr><td style="font-weight:bold;vertical-align:top;">db_sessions</td><td style="vertical-align:top;">:</td><td><div>set([])</div></td></tr><tr><td style="font-weight:bold;vertical-align:top;">debugging</td><td style="vertical-align:top;">:</td><td><div>True</div></td></tr><tr><td style="font-weight:bold;vertical-align:top;">gluon_parent</td><td style="vertical-align:top;">:</td><td><div>/home/pi/hyunhwa/web2py</div></td></tr><tr><td style="font-weight:bold;vertical-align:top;">is_jython</td><td style="vertical-align:top;">:</td><td><div>False</div></td></tr><tr><td style="font-weight:bold;vertical-align:top;">is_pypy</td><td style="vertical-align:top;">:</td><td><div>False</div></td></tr><tr><td style="font-weight:bold;vertical-align:top;">is_source</td><td style="vertical-align:top;">:</td><td><div>True</div></td></tr><tr><td style="font-weight:bold;vertical-align:top;">local_hosts</td><td style="vertical-align:top;">:</td><td><div><table><tr><td><div>::1</div></td></tr><tr><td><div>127.0.1.1</div></td></tr><tr><td><div>::ffff:127.0.0.1</div></td></tr><tr><td><div>127.0.0.1</div></td></tr><tr><td><div>hyunhwa</div></td></tr></table></div></td></tr><tr><td style="font-weight:bold;vertical-align:top;">web2py_version</td><td style="vertical-align:top;">:</td><td><div>2.12.0-stable+timestamp.2015.07.20.01.19.51</div></td></tr></table></div></td></tr><tr><td style="font-weight:bold;vertical-align:top;">is_https</td><td style="vertical-align:top;">:</td><td><div>True</div></td></tr><tr><td style="font-weight:bold;vertical-align:top;">is_local</td><td style="vertical-align:top;">:</td><td><div>False</div></td></tr><tr><td style="font-weight:bold;vertical-align:top;">is_restful</td><td style="vertical-align:top;">:</td><td><div>False</div></td></tr><tr><td style="font-weight:bold;vertical-align:top;">is_sheduler</td><td style="vertical-align:top;">:</td><td><div>None</div></td></tr><tr><td style="font-weight:bold;vertical-align:top;">is_shell</td><td style="vertical-align:top;">:</td><td><div>None</div></td></tr><tr><td style="font-weight:bold;vertical-align:top;">now</td><td style="vertical-align:top;">:</td><td><div>datetime.datetime(2015, 8, 7, 16, 1, 26, 484003)</div></td></tr><tr><td style="font-weight:bold;vertical-align:top;">raw_args</td><td style="vertical-align:top;">:</td><td><div></div></td></tr><tr><td style="font-weight:bold;vertical-align:top;">raw_extension</td><td style="vertical-align:top;">:</td><td><div>json</div></td></tr><tr><td style="font-weight:bold;vertical-align:top;">url</td><td style="vertical-align:top;">:</td><td><div>/test/default/message_updates.json</div></td></tr><tr><td style="font-weight:bold;vertical-align:top;">utcnow</td><td style="vertical-align:top;">:</td><td><div>datetime.datetime(2015, 8, 7, 7, 1, 26, 484207)</div></td></tr><tr><td style="font-weight:bold;vertical-align:top;">wsgi</td><td style="vertical-align:top;">:</td><td><div>&lt;gluon.main.LazyWSGI object at 0x1cef550&gt;</div></td></tr></table></div>'
tRp55
sS'frames'
p56
(lp57
(dp58
S'file'
p59
S'/home/pi/hyunhwa/web2py/gluon/main.py'
p60
sS'dump'
p61
(dp62
S'global serve_controller'
p63
S'<function serve_controller>'
p64
sS'session'
p65
S"<Storage {'last_query': 'db.chat.id>0', '_auth_n...gin]': ['5d84cd3a-4150-4228-aba9-20be047b0d9a']}>"
p66
sS'request'
p67
S"<Storage {'_vars': None, 'function': 'message_up...': '/home/pi/hyunhwa/web2py/applications/test/'}>"
p68
sS'response'
p69
S"<Storage {'body': <cStringIO.StringO object at 0...9a91b0>, 'view': 'default/message_updates.json'}>"
p70
ssS'lnum'
p71
I447
sS'lines'
p72
(dp73
I448
S''
sI449
S'            except HTTP, http_response:'
p74
sI450
S''
sI451
S'                if static_file:'
p75
sI442
S'                if global_settings.debugging and app != "admin":'
p76
sI443
S'                    import gluon.debug'
p77
sI444
S'                    # activate the debugger'
p78
sI445
S'                    gluon.debug.dbg.do_debug(mainpyfile=request.folder)'
p79
sI446
S''
sI447
S'                serve_controller(request, response, session)'
p80
ssS'call'
p81
S"(environ={'CONTENT_LENGTH': '9', 'CONTENT_TYPE': 'application/x-www-form-urlencoded; charset=UTF-8', 'HTTPS': 'on', 'HTTP_ACCEPT': '*/*', 'HTTP_ACCEPT_ENCODING': 'gzip, deflate', 'HTTP_ACCEPT_LANGUAGE': 'ko-KR,ko;q=0.8,en-US;q=0.6,en;q=0.4', 'HTTP_CONNECTION': 'keep-alive', 'HTTP_CONTENT_LENGTH': '9', 'HTTP_CONTENT_TYPE': 'application/x-www-form-urlencoded; charset=UTF-8', 'HTTP_COOKIE': 'session_id_welcome=169.254.55.203-8b672317-e552-...9.254.55.203-c03f8034-2cad-4187-9815-8762e42d0bc5', ...}, responder=<function responder2>)"
p82
sS'func'
p83
S'wsgibase'
p84
sa(dp85
g59
S'/home/pi/hyunhwa/web2py/gluon/main.py'
p86
sg61
(dp87
S'global run_controller_in'
p88
S'<function run_controller_in>'
p89
sS'request.controller'
p90
S"'default'"
p91
sS'request'
p92
S"<Storage {'_vars': None, 'function': 'message_up...': '/home/pi/hyunhwa/web2py/applications/test/'}>"
p93
sS'environment'
p94
S"{'A': <class 'gluon.html.A'>, 'ANY_OF': <class 'gluon.validators.ANY_OF'>, 'ASSIGNJS': <function ASSIGNJS>, 'Auth': <class 'gluon.tools.Auth'>, 'B': <class 'gluon.html.B'>, 'BEAUTIFY': <class 'gluon.html.BEAUTIFY'>, 'BODY': <class 'gluon.html.BODY'>, 'BR': <class 'gluon.html.BR'>, 'BUTTON': <class 'gluon.html.BUTTON'>, 'CAT': <class 'gluon.html.CAT'>, ...}"
p95
sS'request.function'
p96
S"'message_updates'"
p97
sS'page'
p98
S'undefined'
p99
ssg71
I188
sg72
(dp100
I192
S'        run_view_in(response._view_environment)'
p101
sI183
S'    # process models, controller and view (if required)'
p102
sI184
S'    # ##################################################'
p103
sI185
S''
sI186
S'    run_models_in(environment)'
p104
sI187
S'    response._view_environment = copy.copy(environment)'
p105
sI188
S'    page = run_controller_in(request.controller, request.function, environment)'
p106
sI189
S'    if isinstance(page, dict):'
p107
sI190
S'        response._vars = page'
p108
sI191
S'        response._view_environment.update(page)'
p109
ssg81
S"(request=<Storage {'_vars': None, 'function': 'message_up...': '/home/pi/hyunhwa/web2py/applications/test/'}>, response=<Storage {'body': <cStringIO.StringO object at 0...9a91b0>, 'view': 'default/message_updates.json'}>, session=<Storage {'last_query': 'db.chat.id>0', '_auth_n...gin]': ['5d84cd3a-4150-4228-aba9-20be047b0d9a']}>)"
p110
sg83
S'serve_controller'
p111
sa(dp112
g59
S'/home/pi/hyunhwa/web2py/gluon/compileapp.py'
p113
sg61
(dp114
S'environment'
p115
S"{'A': <class 'gluon.html.A'>, 'ANY_OF': <class 'gluon.validators.ANY_OF'>, 'ASSIGNJS': <function ASSIGNJS>, 'Auth': <class 'gluon.tools.Auth'>, 'B': <class 'gluon.html.B'>, 'BEAUTIFY': <class 'gluon.html.BEAUTIFY'>, 'BODY': <class 'gluon.html.BODY'>, 'BR': <class 'gluon.html.BR'>, 'BUTTON': <class 'gluon.html.BUTTON'>, 'CAT': <class 'gluon.html.CAT'>, ...}"
p116
sS'code'
p117
S"'# -*- coding: utf-8 -*-\\n# this file is released ...response._vars=response._caller(message_updates)\\n'"
p118
sS'global restricted'
p119
S'<function restricted>'
p120
sS'filename'
p121
S"'/home/pi/hyunhwa/web2py/applications/test/controllers/default.py'"
p122
ssg71
I634
sg72
(dp123
I629
S'                       web2py_error=badf)'
p124
sI630
S'        code = "%s\\nresponse._vars=response._caller(%s)\\n" % (code, function)'
p125
sI631
S'        if is_gae:'
p126
sI632
S"            layer = filename + ':' + function"
p127
sI633
S'            code = getcfs(layer, filename, lambda: compile2(code, layer))'
p128
sI634
S'        restricted(code, environment, filename)'
p129
sI635
S'    response = current.response'
p130
sI636
S'    vars = response._vars'
p131
sI637
S'    if response.postprocessing:'
p132
sI638
S'        vars = reduce(lambda vars, p: p(vars), response.postprocessing, vars)'
p133
ssg81
S"(controller='default', function='message_updates', environment={'A': <class 'gluon.html.A'>, 'ANY_OF': <class 'gluon.validators.ANY_OF'>, 'ASSIGNJS': <function ASSIGNJS>, 'Auth': <class 'gluon.tools.Auth'>, 'B': <class 'gluon.html.B'>, 'BEAUTIFY': <class 'gluon.html.BEAUTIFY'>, 'BODY': <class 'gluon.html.BODY'>, 'BR': <class 'gluon.html.BR'>, 'BUTTON': <class 'gluon.html.BUTTON'>, 'CAT': <class 'gluon.html.CAT'>, ...})"
p134
sg83
S'run_controller_in'
p135
sa(dp136
g59
S'/home/pi/hyunhwa/web2py/gluon/restricted.py'
p137
sg61
(dp138
S'environment'
p139
S"{'A': <class 'gluon.html.A'>, 'ANY_OF': <class 'gluon.validators.ANY_OF'>, 'ASSIGNJS': <function ASSIGNJS>, 'Auth': <class 'gluon.tools.Auth'>, 'B': <class 'gluon.html.B'>, 'BEAUTIFY': <class 'gluon.html.BEAUTIFY'>, 'BODY': <class 'gluon.html.BODY'>, 'BR': <class 'gluon.html.BR'>, 'BUTTON': <class 'gluon.html.BUTTON'>, 'CAT': <class 'gluon.html.CAT'>, ...}"
p140
sS'ccode'
p141
S'<code object <module> at 0x1b01260, file "/home/...plications/test/controllers/default.py", line 11>'
p142
ssg71
I227
sg72
(dp143
I224
S'            ccode = code'
p144
sI225
S'        else:'
p145
sI226
S'            ccode = compile2(code, layer)'
p146
sI227
S'        exec ccode in environment'
p147
sI228
S'    except HTTP:'
p148
sI229
S'        raise'
p149
sI230
S'    except RestrictedError:'
p150
sI231
S'        # do not encapsulate (obfuscate) the original RestrictedError'
p151
sI222
S'    try:'
p152
sI223
S'        if isinstance(code, types.CodeType):'
p153
ssg81
S"(code='# -*- coding: utf-8 -*-\\n# this file is released ...response._vars=response._caller(message_updates)\\n', environment={'A': <class 'gluon.html.A'>, 'ANY_OF': <class 'gluon.validators.ANY_OF'>, 'ASSIGNJS': <function ASSIGNJS>, 'Auth': <class 'gluon.tools.Auth'>, 'B': <class 'gluon.html.B'>, 'BEAUTIFY': <class 'gluon.html.BEAUTIFY'>, 'BODY': <class 'gluon.html.BODY'>, 'BR': <class 'gluon.html.BR'>, 'BUTTON': <class 'gluon.html.BUTTON'>, 'CAT': <class 'gluon.html.CAT'>, ...}, layer='/home/pi/hyunhwa/web2py/applications/test/controllers/default.py')"
p154
sg83
S'restricted'
p155
sa(dp156
g59
S'/home/pi/hyunhwa/web2py/applications/test/controllers/default.py'
p157
sg61
(dp158
S'sht_db_main'
p159
S'<function sht_db_main>'
p160
ssg71
I83
sg72
(dp161
I76
S''
sI77
S'#@auth.requires_signature()'
p162
sI78
S'def sensor_updates():'
p163
sI79
S'    #hats._create_message(db, \'temperature\', "\xed\x98\x84\xec\x9e\xac \xec\x98\xa8\xeb\x8f\x84\xeb\x8a\x94 "+str(sht_db_main(1))+" \xe2\x84\x83 \xec\x9e\x85\xeb\x8b\x88\xeb\x8b\xa4.")'
p164
sI80
S'    #chats._create_message(db, \'humidity\', "\xed\x98\x84\xec\x9e\xac \xec\x8a\xb5\xeb\x8f\x84\xeb\x8a\x94 "+str(sht_db_main(2))+" \xef\xbc\x85 \xec\x9e\x85\xeb\x8b\x88\xeb\x8b\xa4.")'
p165
sI81
S'    if sht_db_main(1)>28:'
p166
sI82
S'        chats._create_message(db, \'temperature\', "\xed\x98\x84\xec\x9e\xac \xec\x98\xa8\xeb\x8f\x84\xeb\x8a\x94 "+str(sht_db_main(1))+" \xe2\x84\x83 \xec\x9e\x85\xeb\x8b\x88\xeb\x8b\xa4.\\n\xec\x98\xa8\xeb\x8f\x84\xea\xb0\x80 \xeb\x84\x88\xeb\xac\xb4 \xeb\x86\x92\xec\x8a\xb5\xeb\x8b\x88\xeb\x8b\xa4.\\n\xeb\xaa\x85\xeb\xa0\xb9 : alert by LED")'
p167
sI83
S'    elif sht_db_main(2)>70:'
p168
sI84
S'        chats._create_message(db, \'humidity\', "\xed\x98\x84\xec\x9e\xac \xec\x8a\xb5\xeb\x8f\x84\xeb\x8a\x94 "+str(sht_db_main(2))+" \xef\xbc\x85 \xec\x9e\x85\xeb\x8b\x88\xeb\x8b\xa4.\\n\xec\x8a\xb5\xeb\x8f\x84\xea\xb0\x80 \xeb\x84\x88\xeb\xac\xb4 \xeb\x86\x92\xec\x8a\xb5\xeb\x8b\x88\xeb\x8b\xa4. \\n\xeb\xaa\x85\xeb\xa0\xb9 : alert by LED")'
p169
sI85
S'    return chats.index(db)'
p170
ssg81
S'()'
p171
sg83
S'<module>'
p172
sa(dp173
g59
S'/home/pi/hyunhwa/web2py/gluon/globals.py'
p174
sg61
(dp175
S'self'
p176
g99
sS'f'
S'<function message_updates>'
p177
ssg71
I412
sg72
(dp178
I416
S"        self.generic_patterns = ['*']"
p179
sI407
S"        self.flash = ''            # used by the default view layout"
p180
sI408
S'        self.meta = Storage()      # used by web2py_ajax.html'
p181
sI409
S'        self.menu = []             # used by the default view layout'
p182
sI410
S'        self.files = []            # used by web2py_ajax.html'
p183
sI411
S'        self._vars = None'
p184
sI412
S'        self._caller = lambda f: f()'
p185
sI413
S'        self._view_environment = None'
p186
sI414
S'        self._custom_commit = None'
p187
sI415
S'        self._custom_rollback = None'
p188
ssg81
S'(f=<function message_updates>)'
p189
sg83
S'<lambda>'
p190
sa(dp191
g59
S'/home/pi/hyunhwa/web2py/gluon/tools.py'
p192
sg61
(dp193
S'action'
p194
S'<function message_updates>'
p195
sS'a'
S'()'
p196
sS'b'
g43
ssg71
I3769
sg72
(dp197
I3764
S'                    flag = condition'
p198
sI3765
S'                if not flag:'
p199
sI3766
S'                    current.session.flash = self.messages.access_denied'
p200
sI3767
S'                    return call_or_redirect('
p201
sI3768
S'                        self.settings.on_failed_authorization)'
p202
sI3769
S'                return action(*a, **b)'
p203
sI3770
S'            f.__doc__ = action.__doc__'
p204
sI3771
S'            f.__name__ = action.__name__'
p205
sI3772
S'            f.__dict__.update(action.__dict__)'
p206
sI3773
S'            return f'
p207
ssg81
S'(*a=(), **b={})'
p208
sg83
S'f'
sa(dp209
g59
S'/home/pi/hyunhwa/web2py/applications/test/controllers/default.py'
p210
sg61
(dp211
S'chats.message_updates'
p212
S'<function message_updates>'
p213
sS'global db'
p214
S'<DAL uri="sqlite://storage.sqlite">'
p215
sS'global chats'
p216
S"<module 'applications.test.modules.chats' from 'applications/test/modules/chats.py'>"
p217
ssg71
I75
sg72
(dp218
I70
S'def message_updates():'
p219
sI71
S'    # need to unlock the session when using'
p220
sI72
S'    # session file, should not be need it when'
p221
sI73
S'    # using session in db, or in a cookie'
p222
sI74
S'    session._unlock(response)'
p223
sI75
S'    return chats.message_updates(db)'
p224
sI76
S''
sI77
S'#@auth.requires_signature()'
p225
sI78
S'def sensor_updates():'
p226
sI79
S'    #hats._create_message(db, \'temperature\', "\xed\x98\x84\xec\x9e\xac \xec\x98\xa8\xeb\x8f\x84\xeb\x8a\x94 "+str(sht_db_main(1))+" \xe2\x84\x83 \xec\x9e\x85\xeb\x8b\x88\xeb\x8b\xa4.")'
p227
ssg81
S'()'
p228
sg83
S'message_updates'
p229
sa(dp230
g59
S'/home/pi/hyunhwa/web2py/applications/test/modules/chats.py'
p231
sg61
(dp232
S'global new_message_event'
p233
S'<gevent.event.Event object>'
p234
sS'new_message_event.wait'
p235
S'<bound method Event.wait of <gevent.event.Event object>>'
p236
ssg71
I74
sg72
(dp237
I69
S'    cursor = int(current.session.cursor or 0)'
p238
sI70
S''
sI71
S'    q = db.chat.id > cursor'
p239
sI72
S'    rows = db(q).select()'
p240
sI73
S'    if not rows:'
p241
sI74
S'        new_message_event.wait()'
p242
sI75
S'        rows = db(q).select()'
p243
sI76
S''
sI77
S'    if rows:  # This should be always True'
p244
sI78
S'        current.session.cursor = rows.last().id'
p245
ssg81
S'(db=<DAL uri="sqlite://storage.sqlite">)'
p246
sg83
g229
sa(dp247
g59
S'/usr/lib/pymodules/python2.7/gevent/event.py'
p248
sg61
(dp249
S'global get_hub'
p250
S'<function get_hub>'
p251
sS'result'
p252
g99
sS').switch'
p253
g99
ssg71
I74
sg72
(dp254
I69
S'            self.rawlink(switch)'
p255
sI70
S'            try:'
p256
sI71
S'                timer = Timeout.start_new(timeout)'
p257
sI72
S'                try:'
p258
sI73
S'                    try:'
p259
sI74
S'                        result = get_hub().switch()'
p260
sI75
S"                        assert result is self, 'Invalid switch into Event.wait(): %r' % (result, )"
p261
sI76
S'                    except Timeout, ex:'
p262
sI77
S'                        if ex is not timer:'
p263
sI78
S'                            raise'
p264
ssg81
S'(self=<gevent.event.Event object>, timeout=None)'
p265
sg83
S'wait'
p266
sa(dp267
g59
S'/usr/lib/pymodules/python2.7/gevent/hub.py'
p268
sg61
(dp269
S'self'
p270
S'<gevent.hub.Hub object>'
p271
sS'global greenlet'
p272
S"<type 'greenlet.greenlet'>"
p273
sS'greenlet.switch'
p274
S"<method 'switch' of 'greenlet.greenlet' objects>"
p275
ssg71
I164
sg72
(dp276
I160
S'                    switch_out()'
p277
sI161
S'                except:'
p278
sI162
S'                    traceback.print_exc()'
p279
sI163
S'            sys.exc_clear()'
p280
sI164
S'            return greenlet.switch(self)'
p281
sI165
S'        finally:'
p282
sI166
S'            core.set_exc_info(exc_type, exc_value)'
p283
sI167
S''
sI168
S'    def run(self):'
p284
sI159
S'                try:'
p285
ssg81
S'(self=<gevent.hub.Hub object>)'
p286
sg83
S'switch'
p287
sasS'pyver'
p288
S'Python 2.7.3: /usr/bin/python (prefix: /usr)'
p289
sS'session'
p290
g54
(S's\x85\n\x00\x00<div><table><tr><td style="font-weight:bold;vertical-align:top;">auth</td><td style="vertical-align:top;">:</td><td><div><table><tr><td style="font-weight:bold;vertical-align:top;">expiration</td><td style="vertical-align:top;">:</td><td><div>3600</div></td></tr><tr><td style="font-weight:bold;vertical-align:top;">hmac_key</td><td style="vertical-align:top;">:</td><td><div>dc1dcdb8-87a8-4a44-82db-49fc435fa29e</div></td></tr><tr><td style="font-weight:bold;vertical-align:top;">last_visit</td><td style="vertical-align:top;">:</td><td><div>datetime.datetime(2015, 8, 7, 15, 56, 14, 559143)</div></td></tr><tr><td style="font-weight:bold;vertical-align:top;">remember_me</td><td style="vertical-align:top;">:</td><td><div>False</div></td></tr><tr><td style="font-weight:bold;vertical-align:top;">user</td><td style="vertical-align:top;">:</td><td><div><table><tr><td style="font-weight:bold;vertical-align:top;">email</td><td style="vertical-align:top;">:</td><td><div>ydj00123@nate.com</div></td></tr><tr><td style="font-weight:bold;vertical-align:top;">first_name</td><td style="vertical-align:top;">:</td><td><div>Park</div></td></tr><tr><td style="font-weight:bold;vertical-align:top;">id</td><td style="vertical-align:top;">:</td><td><div>1L</div></td></tr><tr><td style="font-weight:bold;vertical-align:top;">last_name</td><td style="vertical-align:top;">:</td><td><div>HyunHwa</div></td></tr><tr><td style="font-weight:bold;vertical-align:top;">registration_id</td><td style="vertical-align:top;">:</td><td><div></div></td></tr><tr><td style="font-weight:bold;vertical-align:top;">registration_key</td><td style="vertical-align:top;">:</td><td><div></div></td></tr><tr><td style="font-weight:bold;vertical-align:top;">reset_password_key</td><td style="vertical-align:top;">:</td><td><div></div></td></tr></table></div></td></tr><tr><td style="font-weight:bold;vertical-align:top;">user_groups</td><td style="vertical-align:top;">:</td><td><div><table><tr><td style="font-weight:bold;vertical-align:top;">1</td><td style="vertical-align:top;">:</td><td><div>user_1</div></td></tr></table></div></td></tr></table></div></td></tr><tr><td style="font-weight:bold;vertical-align:top;">cursor</td><td style="vertical-align:top;">:</td><td><div>81L</div></td></tr><tr><td style="font-weight:bold;vertical-align:top;">flash</td><td style="vertical-align:top;">:</td><td><div>None</div></td></tr><tr><td style="font-weight:bold;vertical-align:top;">last_orderby</td><td style="vertical-align:top;">:</td><td><div>None</div></td></tr><tr><td style="font-weight:bold;vertical-align:top;">last_query</td><td style="vertical-align:top;">:</td><td><div>db.chat.id&gt;0</div></td></tr></table></div>'
tRp291
sS'etype'
p292
S"<type 'exceptions.KeyboardInterrupt'>"
p293
sS'date'
p294
S'Fri Aug  7 16:55:04 2015'
p295
sS'response'
p296
g54
(S's~\x1e\x00\x00<div><table><tr><td style="font-weight:bold;vertical-align:top;">body</td><td style="vertical-align:top;">:</td><td><div>&lt;cStringIO.StringO object at 0x1cef500&gt;</div></td></tr><tr><td style="font-weight:bold;vertical-align:top;">cookies</td><td style="vertical-align:top;">:</td><td><div><table><tr><td style="font-weight:bold;vertical-align:top;">session_id_test</td><td style="vertical-align:top;">:</td><td><div>169.254.55.203-c03f8034-2cad-4187-9815-8762e42d0bc5<table><tr><td style="font-weight:bold;vertical-align:top;">comment</td><td style="vertical-align:top;">:</td><td><div></div></td></tr><tr><td style="font-weight:bold;vertical-align:top;">domain</td><td style="vertical-align:top;">:</td><td><div></div></td></tr><tr><td style="font-weight:bold;vertical-align:top;">expires</td><td style="vertical-align:top;">:</td><td><div></div></td></tr><tr><td style="font-weight:bold;vertical-align:top;">httponly</td><td style="vertical-align:top;">:</td><td><div></div></td></tr><tr><td style="font-weight:bold;vertical-align:top;">max-age</td><td style="vertical-align:top;">:</td><td><div></div></td></tr><tr><td style="font-weight:bold;vertical-align:top;">path</td><td style="vertical-align:top;">:</td><td><div>/</div></td></tr><tr><td style="font-weight:bold;vertical-align:top;">secure</td><td style="vertical-align:top;">:</td><td><div></div></td></tr><tr><td style="font-weight:bold;vertical-align:top;">version</td><td style="vertical-align:top;">:</td><td><div></div></td></tr></table></div></td></tr></table></div></td></tr><tr><td style="font-weight:bold;vertical-align:top;">delimiters</td><td style="vertical-align:top;">:</td><td><div><table><tr><td><div>{{</div></td></tr><tr><td><div>}}</div></td></tr></table></div></td></tr><tr><td style="font-weight:bold;vertical-align:top;">files</td><td style="vertical-align:top;">:</td><td><div><table></table></div></td></tr><tr><td style="font-weight:bold;vertical-align:top;">flash</td><td style="vertical-align:top;">:</td><td><div></div></td></tr><tr><td style="font-weight:bold;vertical-align:top;">form_label_separator</td><td style="vertical-align:top;">:</td><td><div>: </div></td></tr><tr><td style="font-weight:bold;vertical-align:top;">formstyle</td><td style="vertical-align:top;">:</td><td><div>table3cols</div></td></tr><tr><td style="font-weight:bold;vertical-align:top;">generic_patterns</td><td style="vertical-align:top;">:</td><td><div><table><tr><td><div>*</div></td></tr></table></div></td></tr><tr><td style="font-weight:bold;vertical-align:top;">google_analytics_id</td><td style="vertical-align:top;">:</td><td><div>None</div></td></tr><tr><td style="font-weight:bold;vertical-align:top;">headers</td><td style="vertical-align:top;">:</td><td><div><table><tr><td style="font-weight:bold;vertical-align:top;">X-Powered-By</td><td style="vertical-align:top;">:</td><td><div>web2py</div></td></tr></table></div></td></tr><tr><td style="font-weight:bold;vertical-align:top;">logo</td><td style="vertical-align:top;">:</td><td><div><a class="navbar-brand" href="http://www.web2py.com/" id="web2py-logo"><b>web<span>2</span>py</b>&trade;&nbsp;</a></div></td></tr><tr><td style="font-weight:bold;vertical-align:top;">menu</td><td style="vertical-align:top;">:</td><td><div><table><tr><td><div><table><tr><td><div>Home</div></td></tr><tr><td><div>False</div></td></tr><tr><td><div>/test/default/index.json</div></td></tr><tr><td><div><table></table></div></td></tr></table></div></td></tr><tr><td><div><table><tr><td><div>Register</div></td></tr><tr><td><div>False</div></td></tr><tr><td><div>https://169.254.1.231/test/default/check_form.html</div></td></tr></table></div></td></tr></table></div></td></tr><tr><td style="font-weight:bold;vertical-align:top;">meta</td><td style="vertical-align:top;">:</td><td><div><table><tr><td style="font-weight:bold;vertical-align:top;">author</td><td style="vertical-align:top;">:</td><td><div>Your Name &lt;you@example.com&gt;</div></td></tr><tr><td style="font-weight:bold;vertical-align:top;">description</td><td style="vertical-align:top;">:</td><td><div>a cool new app</div></td></tr><tr><td style="font-weight:bold;vertical-align:top;">generator</td><td style="vertical-align:top;">:</td><td><div>Web2py Web Framework</div></td></tr><tr><td style="font-weight:bold;vertical-align:top;">keywords</td><td style="vertical-align:top;">:</td><td><div>web2py, python, framework</div></td></tr></table></div></td></tr><tr><td style="font-weight:bold;vertical-align:top;">models_to_run</td><td style="vertical-align:top;">:</td><td><div><table><tr><td><div>^\\w+\\.py$</div></td></tr><tr><td><div>^default/\\w+\\.py$</div></td></tr><tr><td><div>^default/message_updates/\\w+\\.py$</div></td></tr></table></div></td></tr><tr><td style="font-weight:bold;vertical-align:top;">postprocessing</td><td style="vertical-align:top;">:</td><td><div><table></table></div></td></tr><tr><td style="font-weight:bold;vertical-align:top;">session_client</td><td style="vertical-align:top;">:</td><td><div>169.254.55.203</div></td></tr><tr><td style="font-weight:bold;vertical-align:top;">session_cookie_compression_level</td><td style="vertical-align:top;">:</td><td><div>None</div></td></tr><tr><td style="font-weight:bold;vertical-align:top;">session_cookie_expires</td><td style="vertical-align:top;">:</td><td><div>None</div></td></tr><tr><td style="font-weight:bold;vertical-align:top;">session_cookie_key</td><td style="vertical-align:top;">:</td><td><div>None</div></td></tr><tr><td style="font-weight:bold;vertical-align:top;">session_data_name</td><td style="vertical-align:top;">:</td><td><div>session_data_test</div></td></tr><tr><td style="font-weight:bold;vertical-align:top;">session_file</td><td style="vertical-align:top;">:</td><td><div>&lt;open file &#x27;/home/pi/hyunhwa/web2py/applications/test/sessions/1ff/1bc/169.254.55.203-c03f8034-2cad-4187-9815-8762e42d0bc5&#x27;, mode &#x27;rb+&#x27; at 0x1ac9ee8&gt;</div></td></tr><tr><td style="font-weight:bold;vertical-align:top;">session_filename</td><td style="vertical-align:top;">:</td><td><div>/home/pi/hyunhwa/web2py/applications/test/sessions/169.254.55.203-c03f8034-2cad-4187-9815-8762e42d0bc5</div></td></tr><tr><td style="font-weight:bold;vertical-align:top;">session_hash</td><td style="vertical-align:top;">:</td><td><div>1c7a43670e574b00949d910078cc7ba3</div></td></tr><tr><td style="font-weight:bold;vertical-align:top;">session_id</td><td style="vertical-align:top;">:</td><td><div>169.254.55.203-c03f8034-2cad-4187-9815-8762e42d0bc5</div></td></tr><tr><td style="font-weight:bold;vertical-align:top;">session_id_name</td><td style="vertical-align:top;">:</td><td><div>session_id_test</div></td></tr><tr><td style="font-weight:bold;vertical-align:top;">session_locked</td><td style="vertical-align:top;">:</td><td><div>False</div></td></tr><tr><td style="font-weight:bold;vertical-align:top;">session_masterapp</td><td style="vertical-align:top;">:</td><td><div>test</div></td></tr><tr><td style="font-weight:bold;vertical-align:top;">session_new</td><td style="vertical-align:top;">:</td><td><div>False</div></td></tr><tr><td style="font-weight:bold;vertical-align:top;">session_storage_type</td><td style="vertical-align:top;">:</td><td><div>file</div></td></tr><tr><td style="font-weight:bold;vertical-align:top;">status</td><td style="vertical-align:top;">:</td><td><div>200</div></td></tr><tr><td style="font-weight:bold;vertical-align:top;">subtitle</td><td style="vertical-align:top;">:</td><td><div></div></td></tr><tr><td style="font-weight:bold;vertical-align:top;">title</td><td style="vertical-align:top;">:</td><td><div>Test</div></td></tr><tr><td style="font-weight:bold;vertical-align:top;">view</td><td style="vertical-align:top;">:</td><td><div>default/message_updates.json</div></td></tr></table></div>'
tRp297
sS'locals'
p298
(dp299
S'self'
p300
S'<gevent.hub.Hub object>'
p301
sS'switch_out'
p302
S'None'
p303
sS'exc_type'
p304
S"<class 'gluon.rocket.SocketClosed'>"
p305
sS'cur'
p306
S'<greenlet.greenlet object>'
p307
sS'exc_value'
p308
S"SocketClosed('Client closed socket.',)"
p309
sssS'traceback'
p310
S'Traceback (most recent call last):\n  File "/home/pi/hyunhwa/web2py/gluon/main.py", line 447, in wsgibase\n    serve_controller(request, response, session)\n  File "/home/pi/hyunhwa/web2py/gluon/main.py", line 188, in serve_controller\n    page = run_controller_in(request.controller, request.function, environment)\n  File "/home/pi/hyunhwa/web2py/gluon/compileapp.py", line 634, in run_controller_in\n    restricted(code, environment, filename)\n  File "/home/pi/hyunhwa/web2py/gluon/restricted.py", line 227, in restricted\n    exec ccode in environment\n  File "/home/pi/hyunhwa/web2py/applications/test/controllers/default.py", line 83, in <module>\n    elif sht_db_main(2)>70:\n  File "/home/pi/hyunhwa/web2py/gluon/globals.py", line 412, in <lambda>\n    self._caller = lambda f: f()\n  File "/home/pi/hyunhwa/web2py/gluon/tools.py", line 3769, in f\n    return action(*a, **b)\n  File "/home/pi/hyunhwa/web2py/applications/test/controllers/default.py", line 75, in message_updates\n    return chats.message_updates(db)\n  File "applications/test/modules/chats.py", line 74, in message_updates\n    new_message_event.wait()\n  File "/usr/lib/pymodules/python2.7/gevent/event.py", line 74, in wait\n    result = get_hub().switch()\n  File "/usr/lib/pymodules/python2.7/gevent/hub.py", line 164, in switch\n    return greenlet.switch(self)\nKeyboardInterrupt\n'
p311
s.