(dp1
S'output'
p2
S"<type 'exceptions.NameError'> name 'now_time' is not defined"
p3
sS'layer'
p4
S'/home/pi/hyunhwa/web2py/applications/test/views/default/tsdb.html'
p5
sS'code'
p6
S'response.write(\'<!DOCTYPE html PUBLIC "-//W3C//DTD XHTML 1.0 Transitional//EN" "http://www.w3.org/TR/xhtml1/DTD/xhtml1-transitional.dtd">\\n<html xmlns="http://www.w3.org/1999/xhtml">\\n <head>\\n  <title>\\n   \', escape=False)\nresponse.write(response.title or request.application)\nresponse.write(\'\\n  </title>\\n  \', escape=False)\nresponse.files.append(URL(request.application,\'static\',\'plugin_layouts/layouts/KeepitSimple/css/style.css\'))\nresponse.write(\'\\n  \', escape=False)\nresponse.files.append(URL(\'static\',\'plugin_layouts/superfish.js\'))\nresponse.write(\'\\n  \', escape=False)\nresponse.write(\'<script type="text/javascript"><!--\\n    // These variables are used by the web2py_ajax_init function in web2py_ajax.js (which is loaded below).\\n    var w2p_ajax_confirm_message = "\', escape=False)\nresponse.write(T(\'Are you sure you want to delete this object?\'))\nresponse.write(\'";\\n    var w2p_ajax_disable_with_message = "\', escape=False)\nresponse.write(T(\'Working...\'))\nresponse.write(\'";\\n    var w2p_ajax_date_format = "\', escape=False)\nresponse.write(T(\'%Y-%m-%d\'))\nresponse.write(\'";\\n    var w2p_ajax_datetime_format = "\', escape=False)\nresponse.write(T(\'%Y-%m-%d %H:%M:%S\'))\nresponse.write(\'";\\n    var ajax_error_500 = \\\'\', escape=False)\nresponse.write(T.M(\'An error occured, please [[reload %s]] the page\') % URL(args=request.args, vars=request.get_vars))\nresponse.write("\'\\n    //--></script>\\n", escape=False)\nresponse.files.insert(0,URL(\'static\',\'js/jquery.js\'))\nresponse.files.insert(1,URL(\'static\',\'css/calendar.css\'))\nresponse.files.insert(2,URL(\'static\',\'js/calendar.js\'))\nresponse.files.insert(3,URL(\'static\',\'js/web2py.js\'))\nresponse.include_meta()\nresponse.include_files()\nresponse.write(\'\\n\', escape=False)\nresponse.write(\'\\n  <style>\\nul.web2py-menu-vertical { width: 150px; position: relative; top:1em; left:1em;  z-index:30; border:0; margin:0; padding: 0; list-style: none; text-decoration: none;}\\nul.web2py-menu-vertical li { margin:0; padding:0; border:0; width: 150px; background: black; text-align:left;}\\nul.web2py-menu-vertical li a { margin:0; padding: 1px 3px 1px 3px; border:0; width: 144px; color: white; font-size:12px;}\\ndiv.flash { position: fixed; float: right; padding: 10px; top: 10px; right: 30px; opacity: 0.75; margin: 10px 10px 10px 10px; text-align: center; clear: both; color: #fff; font-size: 11pt; text-align: center; vertical-align: middle; cursor: pointer; background: black; border: 2px solid #fff; -moz-border-radius: 5px; -webkit-border-radius: 5px; z-index: 2; }\\ndiv.error { background-color: red; color: white; padding: 3px; }\\n.auth_navbar { text-align:right; z-index:20; position: absolute; top: 2px; right:30px; border:0; padding:0 }\\n  </style>\\n </head>\\n <body>\\n  <!-- start header -->\\n  \', escape=False)\ntry:\n    response.write(auth.navbar(action=URL(\'default\',\'user\')))\nexcept:pass\nresponse.write(\'\\n\\n  <div id="container">\\n   <div id="header">\\n    <a href="#">\\n     Keep it Simple\\n    </a>\\n   </div>\\n   <div id="menu">\\n    <a href="https://169.254.1.231:8000/test/default/index.html">HOME</a> \\n       &nbsp; &nbsp; &nbsp; &nbsp; \\n       <a href="https://169.254.1.231:8000/test/default/all_records.html">Client List</a> \\n       &nbsp; &nbsp; &nbsp; &nbsp;\\n       <a href="https://169.254.1.231:8000/test/default/sht_db.html">Chatting Log</a> \\n       &nbsp; &nbsp; &nbsp; &nbsp;\\n       <a href="https://169.254.1.231:8000/test/default/chatting.html">Chatting</a> \\n        &nbsp; &nbsp; &nbsp; &nbsp;\\n       <a href="https://169.254.1.231:8000/test/default/tsdb.html">OpneTSDB</a>\\n    <script>\\n      jQuery(document).ready(function(){jQuery(\\\'ul.web2py-menu\\\').superfish({delay:400});});\\n    </script>\\n   </div>\\n   <div id="main">\\n    <div class="flash">\', escape=False)\nresponse.write(response.flash or \'\')\nresponse.write(\'</div>\\n    \', escape=False)\nresponse.write(\' \', escape=False)\nresponse.write("\\n<script>\\n\\t\\t\\tfunction now_time() {\\n\\t\\t\\t  var time_t = new Date();\\n\\t\\t\\t  var s =\\n\\t\\t\\t\\tset_standard(time_t .getFullYear(), 4)+\'/\'+\\n\\t\\t\\t\\tset_standard(time_t .getMonth() + 1, 2)+\'/\'+\\n\\t\\t\\t\\tset_standard(time_t .getDate(), 2)+\' \'+\\n\\t\\t\\t\\tset_standard(time_t .getHours(), 2)+\':\'+\\n\\t\\t\\t\\tset_standard(time_t .getMinutes(), 2)+\':\'+\\n\\t\\t\\t\\tset_standard(time_t .getSeconds(), 2);\\n\\n\\t\\t\\t  return s;\\n\\t\\t\\t}\\n\\n\\n\\t\\t\\tfunction set_standard(time, digits) {\\n\\t\\t\\t  var zero = \'\';\\n\\t\\t\\t  time = time.toString();\\n\\n\\t\\t\\t  if (time.length < digits) {\\n\\t\\t\\t\\tfor (i = 0; i < digits - time.length; i++)\\n\\t\\t\\t\\t  zero += \'0\';\\n\\t\\t\\t  }\\n\\t\\t\\t  return zero + time;\\n\\t\\t\\t}\\n</script>\\n\\n<h1>This is graph page display the current temperature, humidity, co2 concentration, dust concentration in Seoul</h1>\\n", escape=False)\nresponse.write(BEAUTIFY(response._vars))\nresponse.write(\'\\n<h1>\\n    \', escape=False)\nresponse.write(now_time())\nresponse.write(\'\\n</h1>\\n\', escape=False)\nresponse.write(\' \', escape=False)\nresponse.write(\'\\n   </div>\\n  </div>\\n </body>\\n</html>\\n\', escape=False)'
p7
sS'snapshot'
p8
(dp9
sS'traceback'
p10
S'Traceback (most recent call last):\n  File "/home/pi/hyunhwa/web2py/gluon/restricted.py", line 227, in restricted\n    exec ccode in environment\n  File "/home/pi/hyunhwa/web2py/applications/test/views/default/tsdb.html", line 37, in <module>\nNameError: name \'now_time\' is not defined\n'
p11
s.